target datalayout = "e-m:e-p270:32:32-p271:32:32-p272:64:64-i64:64-i128:128-f80:128-n8:16:32:64-S128"
target triple = "x86_64-pc-linux-gnu"

%"struct.duckdb_re2::PatchList" = type { i32, i32 }
%"class.duckdb_re2::Compiler" = type <{ %"class.duckdb_re2::Regexp::Walker", ptr, i8, [3 x i8], i32, i8, [7 x i8], %"class.duckdb_re2::PODArray", i32, i32, i64, %"class.std::unordered_map", %"struct.duckdb_re2::Frag", i32, [4 x i8] }>
%"class.duckdb_re2::Regexp::Walker" = type { ptr, %"class.std::stack", i8, i32 }
%"class.std::stack" = type { %"class.std::deque" }
%"class.std::deque" = type { %"class.std::_Deque_base" }
%"class.std::_Deque_base" = type { %"struct.std::_Deque_base<duckdb_re2::WalkState<duckdb_re2::Frag>, std::allocator<duckdb_re2::WalkState<duckdb_re2::Frag>>>::_Deque_impl" }
%"struct.std::_Deque_base<duckdb_re2::WalkState<duckdb_re2::Frag>, std::allocator<duckdb_re2::WalkState<duckdb_re2::Frag>>>::_Deque_impl" = type { %"struct.std::_Deque_base<duckdb_re2::WalkState<duckdb_re2::Frag>, std::allocator<duckdb_re2::WalkState<duckdb_re2::Frag>>>::_Deque_impl_data" }
%"struct.std::_Deque_base<duckdb_re2::WalkState<duckdb_re2::Frag>, std::allocator<duckdb_re2::WalkState<duckdb_re2::Frag>>>::_Deque_impl_data" = type { ptr, i64, %"struct.std::_Deque_iterator", %"struct.std::_Deque_iterator" }
%"struct.std::_Deque_iterator" = type { ptr, ptr, ptr, ptr }
%"class.duckdb_re2::PODArray" = type { %"class.std::unique_ptr" }
%"class.std::unique_ptr" = type { %"struct.std::__uniq_ptr_data" }
%"struct.std::__uniq_ptr_data" = type { %"class.std::__uniq_ptr_impl" }
%"class.std::__uniq_ptr_impl" = type { %"class.std::tuple" }
%"class.std::tuple" = type { %"struct.std::_Tuple_impl" }
%"struct.std::_Tuple_impl" = type { %"struct.std::_Tuple_impl.0", %"struct.std::_Head_base.1" }
%"struct.std::_Tuple_impl.0" = type { %"struct.std::_Head_base" }
%"struct.std::_Head_base" = type { %"struct.duckdb_re2::PODArray<duckdb_re2::Prog::Inst>::Deleter" }
%"struct.duckdb_re2::PODArray<duckdb_re2::Prog::Inst>::Deleter" = type { i32 }
%"struct.std::_Head_base.1" = type { ptr }
%"class.std::unordered_map" = type { %"class.std::_Hashtable" }
%"class.std::_Hashtable" = type { ptr, i64, %"struct.std::__detail::_Hash_node_base", i64, %"struct.std::__detail::_Prime_rehash_policy", ptr }
%"struct.std::__detail::_Hash_node_base" = type { ptr }
%"struct.std::__detail::_Prime_rehash_policy" = type { float, i64 }
%"struct.duckdb_re2::Frag" = type <{ i32, %"struct.duckdb_re2::PatchList", i8, [3 x i8] }>
%"class.duckdb_re2::Prog::Inst" = type { i32, %union.anon.25 }
%union.anon.25 = type { i32 }

@_ZN10duckdb_re2L14kNullPatchListE = internal constant %"struct.duckdb_re2::PatchList" zeroinitializer, align 4

; Function Attrs: mustprogress nounwind uwtable
define linkonce_odr hidden noundef nonnull align 8 dereferenceable(8) ptr @_ZNSt10_Head_baseILm0EPN10duckdb_re24Prog4InstELb0EE7_M_headERKS4_(ptr noundef nonnull align 8 dereferenceable(8) %0) #1 comdat align 2 {
  %2 = alloca ptr, align 8
  store ptr %0, ptr %2, align 8, !tbaa !248
  %3 = load ptr, ptr %2, align 8, !tbaa !248
  %4 = getelementptr inbounds nuw %"struct.std::_Head_base.1", ptr %3, i32 0, i32 0
  ret ptr %4
}

; Function Attrs: mustprogress nounwind uwtable
define linkonce_odr hidden noundef nonnull align 8 dereferenceable(8) ptr @_ZNSt11_Tuple_implILm0EJPN10duckdb_re24Prog4InstENS0_8PODArrayIS2_E7DeleterEEE7_M_headERKS7_(ptr noundef nonnull align 8 dereferenceable(16) %0) #1 comdat align 2 {
  %2 = alloca ptr, align 8
  store ptr %0, ptr %2, align 8, !tbaa !246
  %3 = load ptr, ptr %2, align 8, !tbaa !246
  %4 = getelementptr inbounds i8, ptr %3, i64 8
  %5 = call noundef nonnull align 8 dereferenceable(8) ptr @_ZNSt10_Head_baseILm0EPN10duckdb_re24Prog4InstELb0EE7_M_headERKS4_(ptr noundef nonnull align 8 dereferenceable(8) %4) #18
  ret ptr %5
}

; Function Attrs: mustprogress nounwind uwtable
define linkonce_odr hidden noundef nonnull align 8 dereferenceable(8) ptr @_ZSt12__get_helperILm0EPN10duckdb_re24Prog4InstEJNS0_8PODArrayIS2_E7DeleterEEERKT0_RKSt11_Tuple_implIXT_EJS7_DpT1_EE(ptr noundef nonnull align 8 dereferenceable(16) %0) #1 comdat {
  %2 = alloca ptr, align 8
  store ptr %0, ptr %2, align 8, !tbaa !246
  %3 = load ptr, ptr %2, align 8, !tbaa !246
  %4 = call noundef nonnull align 8 dereferenceable(8) ptr @_ZNSt11_Tuple_implILm0EJPN10duckdb_re24Prog4InstENS0_8PODArrayIS2_E7DeleterEEE7_M_headERKS7_(ptr noundef nonnull align 8 dereferenceable(16) %3) #18
  ret ptr %4
}

; Function Attrs: mustprogress nounwind uwtable
define linkonce_odr hidden noundef nonnull align 8 dereferenceable(8) ptr @_ZSt3getILm0EJPN10duckdb_re24Prog4InstENS0_8PODArrayIS2_E7DeleterEEERKNSt13tuple_elementIXT_ESt5tupleIJDpT0_EEE4typeERKSB_(ptr noundef nonnull align 8 dereferenceable(16) %0) #1 comdat {
  %2 = alloca ptr, align 8
  store ptr %0, ptr %2, align 8, !tbaa !244
  %3 = load ptr, ptr %2, align 8, !tbaa !244
  %4 = call noundef nonnull align 8 dereferenceable(8) ptr @_ZSt12__get_helperILm0EPN10duckdb_re24Prog4InstEJNS0_8PODArrayIS2_E7DeleterEEERKT0_RKSt11_Tuple_implIXT_EJS7_DpT1_EE(ptr noundef nonnull align 8 dereferenceable(16) %3) #18
  ret ptr %4
}

; Function Attrs: mustprogress nounwind uwtable
define linkonce_odr hidden noundef ptr @_ZNKSt15__uniq_ptr_implIN10duckdb_re24Prog4InstENS0_8PODArrayIS2_E7DeleterEE6_M_ptrEv(ptr noundef nonnull align 8 dereferenceable(16) %0) #1 comdat align 2 {
  %2 = alloca ptr, align 8
  store ptr %0, ptr %2, align 8, !tbaa !240
  %3 = load ptr, ptr %2, align 8
  %4 = getelementptr inbounds nuw %"class.std::__uniq_ptr_impl", ptr %3, i32 0, i32 0
  %5 = call noundef nonnull align 8 dereferenceable(8) ptr @_ZSt3getILm0EJPN10duckdb_re24Prog4InstENS0_8PODArrayIS2_E7DeleterEEERKNSt13tuple_elementIXT_ESt5tupleIJDpT0_EEE4typeERKSB_(ptr noundef nonnull align 8 dereferenceable(16) %4) #18
  %6 = load ptr, ptr %5, align 8, !tbaa !73
  ret ptr %6
}

; Function Attrs: mustprogress nounwind uwtable
define linkonce_odr hidden noundef ptr @_ZNKSt10unique_ptrIA_N10duckdb_re24Prog4InstENS0_8PODArrayIS2_E7DeleterEE3getEv(ptr noundef nonnull align 8 dereferenceable(16) %0) #1 comdat align 2 {
  %2 = alloca ptr, align 8
  store ptr %0, ptr %2, align 8, !tbaa !236
  %3 = load ptr, ptr %2, align 8
  %4 = getelementptr inbounds nuw %"class.std::unique_ptr", ptr %3, i32 0, i32 0
  %5 = call noundef ptr @_ZNKSt15__uniq_ptr_implIN10duckdb_re24Prog4InstENS0_8PODArrayIS2_E7DeleterEE6_M_ptrEv(ptr noundef nonnull align 8 dereferenceable(16) %4) #18
  ret ptr %5
}

; Function Attrs: mustprogress nounwind uwtable
define linkonce_odr hidden noundef nonnull align 4 dereferenceable(8) ptr @_ZNKSt10unique_ptrIA_N10duckdb_re24Prog4InstENS0_8PODArrayIS2_E7DeleterEEixEm(ptr noundef nonnull align 8 dereferenceable(16) %0, i64 noundef %1) #1 comdat align 2 {
  %3 = alloca ptr, align 8
  %4 = alloca i64, align 8
  store ptr %0, ptr %3, align 8, !tbaa !236
  store i64 %1, ptr %4, align 8, !tbaa !84
  %5 = load ptr, ptr %3, align 8
  br label %6

6:                                                ; preds = %2
  br label %7

7:                                                ; preds = %6
  %8 = call noundef ptr @_ZNKSt10unique_ptrIA_N10duckdb_re24Prog4InstENS0_8PODArrayIS2_E7DeleterEE3getEv(ptr noundef nonnull align 8 dereferenceable(16) %5) #18
  %9 = load i64, ptr %4, align 8, !tbaa !84
  %10 = getelementptr inbounds nuw %"class.duckdb_re2::Prog::Inst", ptr %8, i64 %9
  ret ptr %10
}

; Function Attrs: mustprogress nounwind uwtable
define linkonce_odr hidden void @_ZN10duckdb_re24FragC2Ev(ptr noundef nonnull align 4 dereferenceable(13) %0) unnamed_addr #1 comdat align 2 {
  %2 = alloca ptr, align 8
  store ptr %0, ptr %2, align 8, !tbaa !61
  %3 = load ptr, ptr %2, align 8
  %4 = getelementptr inbounds nuw %"struct.duckdb_re2::Frag", ptr %3, i32 0, i32 0
  store i32 0, ptr %4, align 4, !tbaa !63
  %5 = getelementptr inbounds nuw %"struct.duckdb_re2::Frag", ptr %3, i32 0, i32 1
  call void @llvm.memcpy.p0.p0.i64(ptr align 4 %5, ptr align 4 @_ZN10duckdb_re2L14kNullPatchListE, i64 8, i1 false), !tbaa.struct !64
  %6 = getelementptr inbounds nuw %"struct.duckdb_re2::Frag", ptr %3, i32 0, i32 2
  store i8 0, ptr %6, align 4, !tbaa !65
  ret void
}

; Function Attrs: mustprogress nounwind uwtable
define linkonce_odr hidden void @_ZN10duckdb_re24FragC2EjNS_9PatchListEb(ptr noundef nonnull align 4 dereferenceable(13) %0, i32 noundef %1, i64 %2, i1 noundef zeroext %3) unnamed_addr #1 comdat align 2 {
  %5 = alloca %"struct.duckdb_re2::PatchList", align 4
  %6 = alloca ptr, align 8
  %7 = alloca i32, align 4
  %8 = alloca i8, align 1
  store i64 %2, ptr %5, align 4
  store ptr %0, ptr %6, align 8, !tbaa !61
  store i32 %1, ptr %7, align 4, !tbaa !53
  %9 = zext i1 %3 to i8
  store i8 %9, ptr %8, align 1, !tbaa !72
  %10 = load ptr, ptr %6, align 8
  %11 = getelementptr inbounds nuw %"struct.duckdb_re2::Frag", ptr %10, i32 0, i32 0
  %12 = load i32, ptr %7, align 4, !tbaa !53
  store i32 %12, ptr %11, align 4, !tbaa !63
  %13 = getelementptr inbounds nuw %"struct.duckdb_re2::Frag", ptr %10, i32 0, i32 1
  call void @llvm.memcpy.p0.p0.i64(ptr align 4 %13, ptr align 4 %5, i64 8, i1 false), !tbaa.struct !64
  %14 = getelementptr inbounds nuw %"struct.duckdb_re2::Frag", ptr %10, i32 0, i32 2
  %15 = load i8, ptr %8, align 1, !tbaa !72, !range !66, !noundef !67
  %16 = trunc i8 %15 to i1
  %17 = zext i1 %16 to i8
  store i8 %17, ptr %14, align 4, !tbaa !65
  ret void
}

; Function Attrs: mustprogress nounwind uwtable
define linkonce_odr hidden i64 @_ZN10duckdb_re29PatchList2MkEj(i32 noundef %0) #1 comdat align 2 {
  %2 = alloca %"struct.duckdb_re2::PatchList", align 4
  %3 = alloca i32, align 4
  store i32 %0, ptr %3, align 4, !tbaa !53
  %4 = getelementptr inbounds nuw %"struct.duckdb_re2::PatchList", ptr %2, i32 0, i32 0
  %5 = load i32, ptr %3, align 4, !tbaa !53
  store i32 %5, ptr %4, align 4, !tbaa !77
  %6 = getelementptr inbounds nuw %"struct.duckdb_re2::PatchList", ptr %2, i32 0, i32 1
  %7 = load i32, ptr %3, align 4, !tbaa !53
  store i32 %7, ptr %6, align 4, !tbaa !80
  %8 = load i64, ptr %2, align 4
  ret i64 %8
}

; Function Attrs: mustprogress uwtable
define linkonce_odr hidden noundef nonnull align 4 dereferenceable(8) ptr @_ZNK10duckdb_re28PODArrayINS_4Prog4InstEEixEi(ptr noundef nonnull align 8 dereferenceable(16) %0, i32 noundef %1) #0 comdat align 2 {
  %3 = alloca ptr, align 8
  %4 = alloca i32, align 4
  store ptr %0, ptr %3, align 8, !tbaa !57
  store i32 %1, ptr %4, align 4, !tbaa !53
  %5 = load ptr, ptr %3, align 8
  %6 = getelementptr inbounds nuw %"class.duckdb_re2::PODArray", ptr %5, i32 0, i32 0
  %7 = load i32, ptr %4, align 4, !tbaa !53
  %8 = sext i32 %7 to i64
  %9 = call noundef nonnull align 4 dereferenceable(8) ptr @_ZNKSt10unique_ptrIA_N10duckdb_re24Prog4InstENS0_8PODArrayIS2_E7DeleterEEixEm(ptr noundef nonnull align 8 dereferenceable(16) %6, i64 noundef %8)
  ret ptr %9
}

; Function Attrs: mustprogress uwtable
define hidden { i64, i64 } @_ZN10duckdb_re28Compiler7NoMatchEv(ptr noundef nonnull align 8 dereferenceable(228) %0) #0 align 2 {
  %2 = alloca %"struct.duckdb_re2::Frag", align 4
  %3 = alloca ptr, align 8
  store ptr %0, ptr %3, align 8, !tbaa !3
  call void @_ZN10duckdb_re24FragC2Ev(ptr noundef nonnull align 4 dereferenceable(13) %2)
  %4 = load { i64, i64 }, ptr %2, align 4
  ret { i64, i64 } %4
}

; Function Attrs: mustprogress uwtable
define hidden { i64, i64 } @_ZN10duckdb_re28Compiler3NopEv(ptr noundef nonnull align 8 dereferenceable(228) %0) #0 align 2 {
  %2 = alloca %"struct.duckdb_re2::Frag", align 4
  %3 = alloca ptr, align 8
  %4 = alloca i32, align 4
  %5 = alloca { i64, i64 }, align 8
  %6 = alloca i32, align 4
  %7 = alloca %"struct.duckdb_re2::PatchList", align 4
  store ptr %0, ptr %3, align 8, !tbaa !3
  %8 = load ptr, ptr %3, align 8
  call void @llvm.lifetime.start.p0(i64 4, ptr %4) #18
  %9 = call noundef i32 @_ZN10duckdb_re28Compiler9AllocInstEi(ptr noundef nonnull align 8 dereferenceable(228) %8, i32 noundef 1)
  store i32 %9, ptr %4, align 4, !tbaa !53
  %10 = load i32, ptr %4, align 4, !tbaa !53
  %11 = icmp slt i32 %10, 0
  br i1 %11, label %12, label %14

12:                                               ; preds = %1
  %13 = call { i64, i64 } @_ZN10duckdb_re28Compiler7NoMatchEv(ptr noundef nonnull align 8 dereferenceable(228) %8)
  store { i64, i64 } %13, ptr %5, align 8
  call void @llvm.memcpy.p0.p0.i64(ptr align 4 %2, ptr align 8 %5, i64 13, i1 false)
  store i32 1, ptr %6, align 4
  br label %23

14:                                               ; preds = %1
  %15 = getelementptr inbounds nuw %"class.duckdb_re2::Compiler", ptr %8, i32 0, i32 7
  %16 = load i32, ptr %4, align 4, !tbaa !53
  %17 = call noundef nonnull align 4 dereferenceable(8) ptr @_ZNK10duckdb_re28PODArrayINS_4Prog4InstEEixEi(ptr noundef nonnull align 8 dereferenceable(16) %15, i32 noundef %16)
  call void @_ZN10duckdb_re24Prog4Inst7InitNopEj(ptr noundef nonnull align 4 dereferenceable(8) %17, i32 noundef 0)
  %18 = load i32, ptr %4, align 4, !tbaa !53
  %19 = load i32, ptr %4, align 4, !tbaa !53
  %20 = shl i32 %19, 1
  %21 = call i64 @_ZN10duckdb_re29PatchList2MkEj(i32 noundef %20)
  store i64 %21, ptr %7, align 4
  %22 = load i64, ptr %7, align 4
  call void @_ZN10duckdb_re24FragC2EjNS_9PatchListEb(ptr noundef nonnull align 4 dereferenceable(13) %2, i32 noundef %18, i64 %22, i1 noundef zeroext true)
  store i32 1, ptr %6, align 4
  br label %23

23:                                               ; preds = %14, %12
  call void @llvm.lifetime.end.p0(i64 4, ptr %4) #18
  %24 = load { i64, i64 }, ptr %2, align 4
  ret { i64, i64 } %24
}